target datalayout = "e-m:e-p270:32:32-p271:32:32-p272:64:64-i64:64-i128:128-f80:128-n8:16:32:64-S128"
target triple = "x86_64-unknown-linux-gnu"

%struct.timeval = type { i64, i64 }
%struct.timespec = type { i64, i64 }
%struct.evutil_monotonic_timer = type { i32, %struct.timeval, %struct.timeval }

; Function Attrs: nounwind uwtable
define dso_local i32 @evutil_configure_monotonic_time_(ptr noundef %base, i32 noundef %flags) #0 {
entry:
  %retval = alloca i32, align 4
  %base.addr = alloca ptr, align 8
  %flags.addr = alloca i32, align 4
  %precise = alloca i32, align 4
  %fallback = alloca i32, align 4
  %ts = alloca %struct.timespec, align 8
  store ptr %base, ptr %base.addr, align 8
  store i32 %flags, ptr %flags.addr, align 4
  %0 = load i32, ptr %flags.addr, align 4
  %and = and i32 %0, 1
  store i32 %and, ptr %precise, align 4
  %1 = load i32, ptr %flags.addr, align 4
  %and1 = and i32 %1, 2
  store i32 %and1, ptr %fallback, align 4
  %2 = load i32, ptr %precise, align 4
  %tobool = icmp ne i32 %2, 0
  br i1 %tobool, label %if.end4, label %land.lhs.true

land.lhs.true:                                    ; preds = %entry
  %3 = load i32, ptr %fallback, align 4
  %tobool2 = icmp ne i32 %3, 0
  br i1 %tobool2, label %if.end4, label %if.then

if.then:                                          ; preds = %land.lhs.true
  %call = call i32 @clock_gettime(i32 noundef 6, ptr noundef %ts) #5
  %cmp = icmp eq i32 %call, 0
  br i1 %cmp, label %if.then3, label %if.end

if.then3:                                         ; preds = %if.then
  %4 = load ptr, ptr %base.addr, align 8
  %monotonic_clock = getelementptr inbounds %struct.evutil_monotonic_timer, ptr %4, i32 0, i32 0
  store i32 6, ptr %monotonic_clock, align 8
  store i32 0, ptr %retval, align 4
  br label %return

if.end:                                           ; preds = %if.then
  br label %if.end4

if.end4:                                          ; preds = %if.end, %land.lhs.true, %entry
  %5 = load i32, ptr %fallback, align 4
  %tobool5 = icmp ne i32 %5, 0
  br i1 %tobool5, label %if.end11, label %land.lhs.true6

land.lhs.true6:                                   ; preds = %if.end4
  %call7 = call i32 @clock_gettime(i32 noundef 1, ptr noundef %ts) #5
  %cmp8 = icmp eq i32 %call7, 0
  br i1 %cmp8, label %if.then9, label %if.end11

if.then9:                                         ; preds = %land.lhs.true6
  %6 = load ptr, ptr %base.addr, align 8
  %monotonic_clock10 = getelementptr inbounds %struct.evutil_monotonic_timer, ptr %6, i32 0, i32 0
  store i32 1, ptr %monotonic_clock10, align 8
  store i32 0, ptr %retval, align 4
  br label %return

if.end11:                                         ; preds = %land.lhs.true6, %if.end4
  %7 = load ptr, ptr %base.addr, align 8
  %monotonic_clock12 = getelementptr inbounds %struct.evutil_monotonic_timer, ptr %7, i32 0, i32 0
  store i32 -1, ptr %monotonic_clock12, align 8
  store i32 0, ptr %retval, align 4
  br label %return

return:                                           ; preds = %if.end11, %if.then9, %if.then3
  %8 = load i32, ptr %retval, align 4
  ret i32 %8
}

; Function Attrs: nounwind uwtable
define dso_local i32 @evutil_configure_monotonic_time(ptr noundef %timer, i32 noundef %flags) #0 {
entry:
  %timer.addr = alloca ptr, align 8
  %flags.addr = alloca i32, align 4
  store ptr %timer, ptr %timer.addr, align 8
  store i32 %flags, ptr %flags.addr, align 4
  %0 = load ptr, ptr %timer.addr, align 8
  %1 = load i32, ptr %flags.addr, align 4
  %call = call i32 @evutil_configure_monotonic_time_(ptr noundef %0, i32 noundef %1)
  ret i32 %call
}