; Function Attrs: nounwind uwtable
define dso_local noundef i32 @evutil_configure_monotonic_time(ptr noundef writeonly captures(none) initializes((0, 4)) %timer, i32 noundef %flags) local_unnamed_addr #1 {
entry:
  %ts.i = alloca %struct.timespec, align 8
  call void @llvm.lifetime.start.p0(i64 16, ptr nonnull %ts.i)
  %and1.i = and i32 %flags, 2
  %tobool2.not.i = icmp eq i32 %and1.i, 0
  %0 = and i32 %flags, 3
  %or.cond.not.i = icmp eq i32 %0, 0
  br i1 %or.cond.not.i, label %if.then.i, label %if.end4.i

if.then.i:                                        ; preds = %entry
  %call.i = call i32 @clock_gettime(i32 noundef 6, ptr noundef nonnull %ts.i) #8
  %cmp.i = icmp eq i32 %call.i, 0
  br i1 %cmp.i, label %evutil_configure_monotonic_time_.exit, label %if.end4.i

if.end4.i:                                        ; preds = %if.then.i, %entry
  br i1 %tobool2.not.i, label %land.lhs.true6.i, label %if.end11.i

land.lhs.true6.i:                                 ; preds = %if.end4.i
  %call7.i = call i32 @clock_gettime(i32 noundef 1, ptr noundef nonnull %ts.i) #8
  %cmp8.i = icmp eq i32 %call7.i, 0
  br i1 %cmp8.i, label %evutil_configure_monotonic_time_.exit, label %if.end11.i

if.end11.i:                                       ; preds = %land.lhs.true6.i, %if.end4.i
  br label %evutil_configure_monotonic_time_.exit

evutil_configure_monotonic_time_.exit:            ; preds = %if.then.i, %land.lhs.true6.i, %if.end11.i
  %.sink.i = phi i32 [ -1, %if.end11.i ], [ 6, %if.then.i ], [ 1, %land.lhs.true6.i ]
  store i32 %.sink.i, ptr %timer, align 8
  call void @llvm.lifetime.end.p0(i64 16, ptr nonnull %ts.i)
  ret i32 0
}